target datalayout = "e-m:e-p270:32:32-p271:32:32-p272:64:64-i64:64-i128:128-f80:128-n8:16:32:64-S128"
target triple = "x86_64-pc-linux-gnu"

%"class.std::map" = type { %"class.std::_Rb_tree" }
%"class.std::_Rb_tree" = type { %"struct.std::_Rb_tree<ZXing::ECI, std::pair<const ZXing::ECI, ZXing::CharacterSet>, std::_Select1st<std::pair<const ZXing::ECI, ZXing::CharacterSet>>, std::less<ZXing::ECI>>::_Rb_tree_impl" }
%"struct.std::_Rb_tree<ZXing::ECI, std::pair<const ZXing::ECI, ZXing::CharacterSet>, std::_Select1st<std::pair<const ZXing::ECI, ZXing::CharacterSet>>, std::less<ZXing::ECI>>::_Rb_tree_impl" = type { [8 x i8], %"struct.std::_Rb_tree_header" }
%"struct.std::_Rb_tree_header" = type { %"struct.std::_Rb_tree_node_base", i64 }
%"struct.std::_Rb_tree_node_base" = type { i32, ptr, ptr, ptr }
%"struct.std::pair" = type <{ i32, i8, [3 x i8] }>
%"struct.std::_Rb_tree_const_iterator" = type { ptr }
%"struct.std::_Rb_tree_node" = type { %"struct.std::_Rb_tree_node_base", %"struct.__gnu_cxx::__aligned_membuf" }
%"struct.__gnu_cxx::__aligned_membuf" = type { [8 x i8] }

@_ZN5ZXingL14ECI_TO_CHARSETE = internal global %"class.std::map" zeroinitializer, align 8

; Function Attrs: mustprogress nounwind uwtable
define linkonce_odr noundef ptr @_ZNK9__gnu_cxx16__aligned_membufISt4pairIKN5ZXing3ECIENS2_12CharacterSetEEE7_M_addrEv(ptr noundef nonnull align 4 dereferenceable(8) %0) #3 comdat align 2 {
  %2 = alloca ptr, align 8
  store ptr %0, ptr %2, align 8, !tbaa !52
  %3 = load ptr, ptr %2, align 8
  %4 = getelementptr inbounds nuw %"struct.__gnu_cxx::__aligned_membuf", ptr %3, i32 0, i32 0
  ret ptr %4
}

; Function Attrs: mustprogress nounwind uwtable
define linkonce_odr noundef ptr @_ZNK9__gnu_cxx16__aligned_membufISt4pairIKN5ZXing3ECIENS2_12CharacterSetEEE6_M_ptrEv(ptr noundef nonnull align 4 dereferenceable(8) %0) #3 comdat align 2 {
  %2 = alloca ptr, align 8
  store ptr %0, ptr %2, align 8, !tbaa !52
  %3 = load ptr, ptr %2, align 8
  %4 = call noundef ptr @_ZNK9__gnu_cxx16__aligned_membufISt4pairIKN5ZXing3ECIENS2_12CharacterSetEEE7_M_addrEv(ptr noundef nonnull align 4 dereferenceable(8) %3) #5
  ret ptr %4
}

; Function Attrs: mustprogress nounwind uwtable
define linkonce_odr void @_ZNSt23_Rb_tree_const_iteratorISt4pairIKN5ZXing3ECIENS1_12CharacterSetEEEC2EPKSt18_Rb_tree_node_base(ptr noundef nonnull align 8 dereferenceable(8) %0, ptr noundef %1) unnamed_addr #3 comdat align 2 {
  %3 = alloca ptr, align 8
  %4 = alloca ptr, align 8
  store ptr %0, ptr %3, align 8, !tbaa !31
  store ptr %1, ptr %4, align 8, !tbaa !45
  %5 = load ptr, ptr %3, align 8
  %6 = getelementptr inbounds nuw %"struct.std::_Rb_tree_const_iterator", ptr %5, i32 0, i32 0
  %7 = load ptr, ptr %4, align 8, !tbaa !45
  store ptr %7, ptr %6, align 8, !tbaa !33
  ret void
}

; Function Attrs: mustprogress nounwind uwtable
define linkonce_odr noundef nonnull align 1 dereferenceable(1) ptr @_ZNSt10__pair_getILm1EE11__const_getIKN5ZXing3ECIENS2_12CharacterSetEEERKT0_RKSt4pairIT_S6_E(ptr noundef nonnull align 4 dereferenceable(5) %0) #3 comdat align 2 {
  %2 = alloca ptr, align 8
  store ptr %0, ptr %2, align 8, !tbaa !37
  %3 = load ptr, ptr %2, align 8, !tbaa !37
  %4 = getelementptr inbounds nuw %"struct.std::pair", ptr %3, i32 0, i32 1
  ret ptr %4
}

; Function Attrs: mustprogress nounwind uwtable
define linkonce_odr noundef nonnull align 4 dereferenceable(4) ptr @_ZNSt10__pair_getILm0EE11__const_getIKN5ZXing3ECIENS2_12CharacterSetEEERKT_RKSt4pairIS6_T0_E(ptr noundef nonnull align 4 dereferenceable(5) %0) #3 comdat align 2 {
  %2 = alloca ptr, align 8
  store ptr %0, ptr %2, align 8, !tbaa !37
  %3 = load ptr, ptr %2, align 8, !tbaa !37
  %4 = getelementptr inbounds nuw %"struct.std::pair", ptr %3, i32 0, i32 0
  ret ptr %4
}

; Function Attrs: mustprogress nounwind uwtable
define linkonce_odr noundef ptr @_ZNKSt13_Rb_tree_nodeISt4pairIKN5ZXing3ECIENS1_12CharacterSetEEE9_M_valptrEv(ptr noundef nonnull align 8 dereferenceable(40) %0) #3 comdat align 2 {
  %2 = alloca ptr, align 8
  store ptr %0, ptr %2, align 8, !tbaa !42
  %3 = load ptr, ptr %2, align 8
  %4 = getelementptr inbounds nuw %"struct.std::_Rb_tree_node", ptr %3, i32 0, i32 1
  %5 = call noundef ptr @_ZNK9__gnu_cxx16__aligned_membufISt4pairIKN5ZXing3ECIENS2_12CharacterSetEEE6_M_ptrEv(ptr noundef nonnull align 4 dereferenceable(8) %4) #5
  ret ptr %5
}

; Function Attrs: mustprogress nounwind uwtable
define linkonce_odr ptr @_ZNKSt8_Rb_treeIN5ZXing3ECIESt4pairIKS1_NS0_12CharacterSetEESt10_Select1stIS5_ESt4lessIS1_ESaIS5_EE3endEv(ptr noundef nonnull align 8 dereferenceable(48) %0) #3 comdat align 2 {
  %2 = alloca %"struct.std::_Rb_tree_const_iterator", align 8
  %3 = alloca ptr, align 8
  store ptr %0, ptr %3, align 8, !tbaa !40
  %4 = load ptr, ptr %3, align 8
  %5 = getelementptr inbounds nuw %"class.std::_Rb_tree", ptr %4, i32 0, i32 0
  %6 = getelementptr inbounds i8, ptr %5, i64 8
  %7 = getelementptr inbounds nuw %"struct.std::_Rb_tree_header", ptr %6, i32 0, i32 0
  call void @_ZNSt23_Rb_tree_const_iteratorISt4pairIKN5ZXing3ECIENS1_12CharacterSetEEEC2EPKSt18_Rb_tree_node_base(ptr noundef nonnull align 8 dereferenceable(8) %2, ptr noundef %7) #5
  %8 = getelementptr inbounds nuw %"struct.std::_Rb_tree_const_iterator", ptr %2, i32 0, i32 0
  %9 = load ptr, ptr %8, align 8
  ret ptr %9
}

; Function Attrs: mustprogress nounwind uwtable
define linkonce_odr ptr @_ZNKSt8_Rb_treeIN5ZXing3ECIESt4pairIKS1_NS0_12CharacterSetEESt10_Select1stIS5_ESt4lessIS1_ESaIS5_EE5beginEv(ptr noundef nonnull align 8 dereferenceable(48) %0) #3 comdat align 2 {
  %2 = alloca %"struct.std::_Rb_tree_const_iterator", align 8
  %3 = alloca ptr, align 8
  store ptr %0, ptr %3, align 8, !tbaa !40
  %4 = load ptr, ptr %3, align 8
  %5 = getelementptr inbounds nuw %"class.std::_Rb_tree", ptr %4, i32 0, i32 0
  %6 = getelementptr inbounds i8, ptr %5, i64 8
  %7 = getelementptr inbounds nuw %"struct.std::_Rb_tree_header", ptr %6, i32 0, i32 0
  %8 = getelementptr inbounds nuw %"struct.std::_Rb_tree_node_base", ptr %7, i32 0, i32 2
  %9 = load ptr, ptr %8, align 8, !tbaa !84
  call void @_ZNSt23_Rb_tree_const_iteratorISt4pairIKN5ZXing3ECIENS1_12CharacterSetEEEC2EPKSt18_Rb_tree_node_base(ptr noundef nonnull align 8 dereferenceable(8) %2, ptr noundef %9) #5
  %10 = getelementptr inbounds nuw %"struct.std::_Rb_tree_const_iterator", ptr %2, i32 0, i32 0
  %11 = load ptr, ptr %10, align 8
  ret ptr %11
}

; Function Attrs: mustprogress nounwind uwtable
define linkonce_odr noundef nonnull align 8 dereferenceable(8) ptr @_ZNSt23_Rb_tree_const_iteratorISt4pairIKN5ZXing3ECIENS1_12CharacterSetEEEppEv(ptr noundef nonnull align 8 dereferenceable(8) %0) #3 comdat align 2 {
  %2 = alloca ptr, align 8
  store ptr %0, ptr %2, align 8, !tbaa !31
  %3 = load ptr, ptr %2, align 8
  %4 = getelementptr inbounds nuw %"struct.std::_Rb_tree_const_iterator", ptr %3, i32 0, i32 0
  %5 = load ptr, ptr %4, align 8, !tbaa !33
  %6 = call noundef ptr @_ZSt18_Rb_tree_incrementPKSt18_Rb_tree_node_base(ptr noundef %5) #20
  %7 = getelementptr inbounds nuw %"struct.std::_Rb_tree_const_iterator", ptr %3, i32 0, i32 0
  store ptr %6, ptr %7, align 8, !tbaa !33
  ret ptr %3
}

; Function Attrs: mustprogress nounwind uwtable
define linkonce_odr noundef nonnull align 1 dereferenceable(1) ptr @_ZSt3getILm1EKN5ZXing3ECIENS0_12CharacterSetEERKNSt13tuple_elementIXT_ESt4pairIT0_T1_EE4typeERKS8_(ptr noundef nonnull align 4 dereferenceable(5) %0) #3 comdat {
  %2 = alloca ptr, align 8
  store ptr %0, ptr %2, align 8, !tbaa !37
  %3 = load ptr, ptr %2, align 8, !tbaa !37
  %4 = call noundef nonnull align 1 dereferenceable(1) ptr @_ZNSt10__pair_getILm1EE11__const_getIKN5ZXing3ECIENS2_12CharacterSetEEERKT0_RKSt4pairIT_S6_E(ptr noundef nonnull align 4 dereferenceable(5) %3) #5
  ret ptr %4
}

; Function Attrs: mustprogress nounwind uwtable
define linkonce_odr noundef nonnull align 4 dereferenceable(4) ptr @_ZSt3getILm0EKN5ZXing3ECIENS0_12CharacterSetEERKNSt13tuple_elementIXT_ESt4pairIT0_T1_EE4typeERKS8_(ptr noundef nonnull align 4 dereferenceable(5) %0) #3 comdat {
  %2 = alloca ptr, align 8
  store ptr %0, ptr %2, align 8, !tbaa !37
  %3 = load ptr, ptr %2, align 8, !tbaa !37
  %4 = call noundef nonnull align 4 dereferenceable(4) ptr @_ZNSt10__pair_getILm0EE11__const_getIKN5ZXing3ECIENS2_12CharacterSetEEERKT_RKSt4pairIS6_T0_E(ptr noundef nonnull align 4 dereferenceable(5) %3) #5
  ret ptr %4
}

; Function Attrs: mustprogress nounwind uwtable
define linkonce_odr noundef nonnull align 4 dereferenceable(5) ptr @_ZNKSt23_Rb_tree_const_iteratorISt4pairIKN5ZXing3ECIENS1_12CharacterSetEEEdeEv(ptr noundef nonnull align 8 dereferenceable(8) %0) #3 comdat align 2 {
  %2 = alloca ptr, align 8
  store ptr %0, ptr %2, align 8, !tbaa !31
  %3 = load ptr, ptr %2, align 8
  %4 = getelementptr inbounds nuw %"struct.std::_Rb_tree_const_iterator", ptr %3, i32 0, i32 0
  %5 = load ptr, ptr %4, align 8, !tbaa !33
  %6 = call noundef ptr @_ZNKSt13_Rb_tree_nodeISt4pairIKN5ZXing3ECIENS1_12CharacterSetEEE9_M_valptrEv(ptr noundef nonnull align 8 dereferenceable(40) %5)
  ret ptr %6
}

; Function Attrs: mustprogress nounwind uwtable
define linkonce_odr noundef zeroext i1 @_ZSteqRKSt23_Rb_tree_const_iteratorISt4pairIKN5ZXing3ECIENS1_12CharacterSetEEES8_(ptr noundef nonnull align 8 dereferenceable(8) %0, ptr noundef nonnull align 8 dereferenceable(8) %1) #3 comdat {
  %3 = alloca ptr, align 8
  %4 = alloca ptr, align 8
  store ptr %0, ptr %3, align 8, !tbaa !31
  store ptr %1, ptr %4, align 8, !tbaa !31
  %5 = load ptr, ptr %3, align 8, !tbaa !31
  %6 = getelementptr inbounds nuw %"struct.std::_Rb_tree_const_iterator", ptr %5, i32 0, i32 0
  %7 = load ptr, ptr %6, align 8, !tbaa !33
  %8 = load ptr, ptr %4, align 8, !tbaa !31
  %9 = getelementptr inbounds nuw %"struct.std::_Rb_tree_const_iterator", ptr %8, i32 0, i32 0
  %10 = load ptr, ptr %9, align 8, !tbaa !33
  %11 = icmp eq ptr %7, %10
  ret i1 %11
}

; Function Attrs: mustprogress nounwind uwtable
define linkonce_odr ptr @_ZNKSt3mapIN5ZXing3ECIENS0_12CharacterSetESt4lessIS1_ESaISt4pairIKS1_S2_EEE3endEv(ptr noundef nonnull align 8 dereferenceable(48) %0) #3 comdat align 2 {
  %2 = alloca %"struct.std::_Rb_tree_const_iterator", align 8
  %3 = alloca ptr, align 8
  store ptr %0, ptr %3, align 8, !tbaa !15
  %4 = load ptr, ptr %3, align 8
  %5 = getelementptr inbounds nuw %"class.std::map", ptr %4, i32 0, i32 0
  %6 = call ptr @_ZNKSt8_Rb_treeIN5ZXing3ECIESt4pairIKS1_NS0_12CharacterSetEESt10_Select1stIS5_ESt4lessIS1_ESaIS5_EE3endEv(ptr noundef nonnull align 8 dereferenceable(48) %5) #5
  %7 = getelementptr inbounds nuw %"struct.std::_Rb_tree_const_iterator", ptr %2, i32 0, i32 0
  store ptr %6, ptr %7, align 8
  %8 = getelementptr inbounds nuw %"struct.std::_Rb_tree_const_iterator", ptr %2, i32 0, i32 0
  %9 = load ptr, ptr %8, align 8
  ret ptr %9
}

; Function Attrs: mustprogress nounwind uwtable
define linkonce_odr ptr @_ZNKSt3mapIN5ZXing3ECIENS0_12CharacterSetESt4lessIS1_ESaISt4pairIKS1_S2_EEE5beginEv(ptr noundef nonnull align 8 dereferenceable(48) %0) #3 comdat align 2 {
  %2 = alloca %"struct.std::_Rb_tree_const_iterator", align 8
  %3 = alloca ptr, align 8
  store ptr %0, ptr %3, align 8, !tbaa !15
  %4 = load ptr, ptr %3, align 8
  %5 = getelementptr inbounds nuw %"class.std::map", ptr %4, i32 0, i32 0
  %6 = call ptr @_ZNKSt8_Rb_treeIN5ZXing3ECIESt4pairIKS1_NS0_12CharacterSetEESt10_Select1stIS5_ESt4lessIS1_ESaIS5_EE5beginEv(ptr noundef nonnull align 8 dereferenceable(48) %5) #5
  %7 = getelementptr inbounds nuw %"struct.std::_Rb_tree_const_iterator", ptr %2, i32 0, i32 0
  store ptr %6, ptr %7, align 8
  %8 = getelementptr inbounds nuw %"struct.std::_Rb_tree_const_iterator", ptr %2, i32 0, i32 0
  %9 = load ptr, ptr %8, align 8
  ret ptr %9
}

; Function Attrs: mustprogress nounwind uwtable
define noundef i32 @_ZN5ZXing5ToECIENS_12CharacterSetE(i8 noundef zeroext %0) #3 {
  %2 = alloca i32, align 4
  %3 = alloca i8, align 1
  %4 = alloca ptr, align 8
  %5 = alloca %"struct.std::_Rb_tree_const_iterator", align 8
  %6 = alloca %"struct.std::_Rb_tree_const_iterator", align 8
  %7 = alloca i32, align 4
  %8 = alloca ptr, align 8
  %9 = alloca ptr, align 8
  %10 = alloca ptr, align 8
  store i8 %0, ptr %3, align 1, !tbaa !36
  %11 = load i8, ptr %3, align 1, !tbaa !36
  %12 = icmp eq i8 %11, 2
  br i1 %12, label %13, label %14

13:                                               ; preds = %1
  store i32 3, ptr %2, align 4
  br label %49

14:                                               ; preds = %1
  %15 = load i8, ptr %3, align 1, !tbaa !36
  %16 = icmp eq i8 %15, 17
  br i1 %16, label %17, label %18

17:                                               ; preds = %14
  store i32 2, ptr %2, align 4
  br label %49

18:                                               ; preds = %14
  call void @llvm.lifetime.start.p0(i64 8, ptr %4) #5
  store ptr @_ZN5ZXingL14ECI_TO_CHARSETE, ptr %4, align 8, !tbaa !15
  call void @llvm.lifetime.start.p0(i64 8, ptr %5) #5
  %19 = call ptr @_ZNKSt3mapIN5ZXing3ECIENS0_12CharacterSetESt4lessIS1_ESaISt4pairIKS1_S2_EEE5beginEv(ptr noundef nonnull align 8 dereferenceable(48) @_ZN5ZXingL14ECI_TO_CHARSETE) #5
  %20 = getelementptr inbounds nuw %"struct.std::_Rb_tree_const_iterator", ptr %5, i32 0, i32 0
  store ptr %19, ptr %20, align 8
  call void @llvm.lifetime.start.p0(i64 8, ptr %6) #5
  %21 = call ptr @_ZNKSt3mapIN5ZXing3ECIENS0_12CharacterSetESt4lessIS1_ESaISt4pairIKS1_S2_EEE3endEv(ptr noundef nonnull align 8 dereferenceable(48) @_ZN5ZXingL14ECI_TO_CHARSETE) #5
  %22 = getelementptr inbounds nuw %"struct.std::_Rb_tree_const_iterator", ptr %6, i32 0, i32 0
  store ptr %21, ptr %22, align 8
  br label %23

23:                                               ; preds = %44, %18
  %24 = call noundef zeroext i1 @_ZSteqRKSt23_Rb_tree_const_iteratorISt4pairIKN5ZXing3ECIENS1_12CharacterSetEEES8_(ptr noundef nonnull align 8 dereferenceable(8) %5, ptr noundef nonnull align 8 dereferenceable(8) %6) #5
  %25 = xor i1 %24, true
  br i1 %25, label %27, label %26

26:                                               ; preds = %23
  store i32 2, ptr %7, align 4
  br label %46

27:                                               ; preds = %23
  call void @llvm.lifetime.start.p0(i64 8, ptr %8) #5
  %28 = call noundef nonnull align 4 dereferenceable(5) ptr @_ZNKSt23_Rb_tree_const_iteratorISt4pairIKN5ZXing3ECIENS1_12CharacterSetEEEdeEv(ptr noundef nonnull align 8 dereferenceable(8) %5) #5
  store ptr %28, ptr %8, align 8, !tbaa !37
  call void @llvm.lifetime.start.p0(i64 8, ptr %9) #5
  %29 = load ptr, ptr %8, align 8, !tbaa !37
  %30 = call noundef nonnull align 4 dereferenceable(4) ptr @_ZSt3getILm0EKN5ZXing3ECIENS0_12CharacterSetEERKNSt13tuple_elementIXT_ESt4pairIT0_T1_EE4typeERKS8_(ptr noundef nonnull align 4 dereferenceable(5) %29) #5
  store ptr %30, ptr %9, align 8, !tbaa !30
  call void @llvm.lifetime.start.p0(i64 8, ptr %10) #5
  %31 = load ptr, ptr %8, align 8, !tbaa !37
  %32 = call noundef nonnull align 1 dereferenceable(1) ptr @_ZSt3getILm1EKN5ZXing3ECIENS0_12CharacterSetEERKNSt13tuple_elementIXT_ESt4pairIT0_T1_EE4typeERKS8_(ptr noundef nonnull align 4 dereferenceable(5) %31) #5
  store ptr %32, ptr %10, align 8, !tbaa !30
  %33 = load ptr, ptr %10, align 8, !tbaa !30
  %34 = load i8, ptr %33, align 1, !tbaa !36
  %35 = load i8, ptr %3, align 1, !tbaa !36
  %36 = icmp eq i8 %34, %35
  br i1 %36, label %37, label %40

37:                                               ; preds = %27
  %38 = load ptr, ptr %9, align 8, !tbaa !30
  %39 = load i32, ptr %38, align 4, !tbaa !19
  store i32 %39, ptr %2, align 4
  store i32 1, ptr %7, align 4
  br label %41

40:                                               ; preds = %27
  store i32 0, ptr %7, align 4
  br label %41

41:                                               ; preds = %40, %37
  call void @llvm.lifetime.end.p0(i64 8, ptr %10) #5
  call void @llvm.lifetime.end.p0(i64 8, ptr %9) #5
  call void @llvm.lifetime.end.p0(i64 8, ptr %8) #5
  %42 = load i32, ptr %7, align 4
  switch i32 %42, label %46 [
    i32 0, label %43
  ]

43:                                               ; preds = %41
  br label %44

44:                                               ; preds = %43
  %45 = call noundef nonnull align 8 dereferenceable(8) ptr @_ZNSt23_Rb_tree_const_iteratorISt4pairIKN5ZXing3ECIENS1_12CharacterSetEEEppEv(ptr noundef nonnull align 8 dereferenceable(8) %5) #5
  br label %23

46:                                               ; preds = %41, %26
  call void @llvm.lifetime.end.p0(i64 8, ptr %6) #5
  call void @llvm.lifetime.end.p0(i64 8, ptr %5) #5
  call void @llvm.lifetime.end.p0(i64 8, ptr %4) #5
  %47 = load i32, ptr %7, align 4
  switch i32 %47, label %51 [
    i32 2, label %48
    i32 1, label %49
  ]

48:                                               ; preds = %46
  store i32 -1, ptr %2, align 4
  br label %49

49:                                               ; preds = %48, %46, %17, %13
  %50 = load i32, ptr %2, align 4
  ret i32 %50

51:                                               ; preds = %46
  unreachable
}